#include <math.h>
#include <stdio.h>
#include <stdlib.h>
#include <string.h>

int main()
{
	int a[310]={0};
	int i,j,k=0;
	int t;
	int n;
	int num;
	scanf("%d\n",&n);
	for(i=0;i<n;i++)
	{
		scanf("%d",&num);
		for(j=0;j<i;j++)
		{
			t=1;
			if(a[j]==num)
			{	t=0;	break;	}
		}
		if(i==0)
			a[k++]=num;
		else
		{
			if(t==1)
				a[k++]=num;
		}
	}
	if(k==1)
		printf("%d\n",a[0]);
	else
	{
		printf("%d",a[0]);
		for(i=1;i<k;i++)
			printf(",%d",a[i]);
		putchar('\n');
	}
	return 0;
}


