; ModuleID = '53/1717.c'
source_filename = "53/1717.c"
target datalayout = "e-m:e-p270:32:32-p271:32:32-p272:64:64-i64:64-f80:128-n8:16:32:64-S128"
target triple = "x86_64-pc-linux-gnu"

@.str = private unnamed_addr constant [4 x i8] c"%d\0A\00", align 1
@.str.1 = private unnamed_addr constant [3 x i8] c"%d\00", align 1
@.str.2 = private unnamed_addr constant [4 x i8] c",%d\00", align 1

; Function Attrs: noinline nounwind uwtable
define dso_local i32 @main() #0 {
  %1 = alloca i32, align 4
  %2 = alloca [310 x i32], align 16
  %3 = alloca i32, align 4
  %4 = alloca i32, align 4
  %5 = alloca i32, align 4
  %6 = alloca i32, align 4
  %7 = alloca i32, align 4
  %8 = alloca i32, align 4
  store i32 0, i32* %1, align 4
  %9 = bitcast [310 x i32]* %2 to i8*
  call void @llvm.memset.p0i8.i64(i8* align 16 %9, i8 0, i64 1240, i1 false)
  store i32 0, i32* %5, align 4
  %10 = call i32 (i8*, ...) @__isoc99_scanf(i8* getelementptr inbounds ([4 x i8], [4 x i8]* @.str, i64 0, i64 0), i32* %7)
  store i32 0, i32* %3, align 4
  br label %11

11:                                               ; preds = %53, %0
  %12 = load i32, i32* %3, align 4
  %13 = load i32, i32* %7, align 4
  %14 = icmp slt i32 %12, %13
  br i1 %14, label %15, label %56

15:                                               ; preds = %11
  %16 = call i32 (i8*, ...) @__isoc99_scanf(i8* getelementptr inbounds ([3 x i8], [3 x i8]* @.str.1, i64 0, i64 0), i32* %8)
  store i32 0, i32* %4, align 4
  br label %17

17:                                               ; preds = %30, %15
  %18 = load i32, i32* %4, align 4
  %19 = load i32, i32* %3, align 4
  %20 = icmp slt i32 %18, %19
  br i1 %20, label %21, label %33

21:                                               ; preds = %17
  store i32 1, i32* %6, align 4
  %22 = load i32, i32* %4, align 4
  %23 = sext i32 %22 to i64
  %24 = getelementptr inbounds [310 x i32], [310 x i32]* %2, i64 0, i64 %23
  %25 = load i32, i32* %24, align 4
  %26 = load i32, i32* %8, align 4
  %27 = icmp eq i32 %25, %26
  br i1 %27, label %28, label %29

28:                                               ; preds = %21
  store i32 0, i32* %6, align 4
  br label %33

29:                                               ; preds = %21
  br label %30

30:                                               ; preds = %29
  %31 = load i32, i32* %4, align 4
  %32 = add nsw i32 %31, 1
  store i32 %32, i32* %4, align 4
  br label %17

33:                                               ; preds = %28, %17
  %34 = load i32, i32* %3, align 4
  %35 = icmp eq i32 %34, 0
  br i1 %35, label %36, label %42

36:                                               ; preds = %33
  %37 = load i32, i32* %8, align 4
  %38 = load i32, i32* %5, align 4
  %39 = add nsw i32 %38, 1
  store i32 %39, i32* %5, align 4
  %40 = sext i32 %38 to i64
  %41 = getelementptr inbounds [310 x i32], [310 x i32]* %2, i64 0, i64 %40
  store i32 %37, i32* %41, align 4
  br label %52

42:                                               ; preds = %33
  %43 = load i32, i32* %6, align 4
  %44 = icmp eq i32 %43, 1
  br i1 %44, label %45, label %51

45:                                               ; preds = %42
  %46 = load i32, i32* %8, align 4
  %47 = load i32, i32* %5, align 4
  %48 = add nsw i32 %47, 1
  store i32 %48, i32* %5, align 4
  %49 = sext i32 %47 to i64
  %50 = getelementptr inbounds [310 x i32], [310 x i32]* %2, i64 0, i64 %49
  store i32 %46, i32* %50, align 4
  br label %51

51:                                               ; preds = %45, %42
  br label %52

52:                                               ; preds = %51, %36
  br label %53

53:                                               ; preds = %52
  %54 = load i32, i32* %3, align 4
  %55 = add nsw i32 %54, 1
  store i32 %55, i32* %3, align 4
  br label %11

56:                                               ; preds = %11
  %57 = load i32, i32* %5, align 4
  %58 = icmp eq i32 %57, 1
  br i1 %58, label %59, label %63

59:                                               ; preds = %56
  %60 = getelementptr inbounds [310 x i32], [310 x i32]* %2, i64 0, i64 0
  %61 = load i32, i32* %60, align 16
  %62 = call i32 (i8*, ...) @printf(i8* getelementptr inbounds ([4 x i8], [4 x i8]* @.str, i64 0, i64 0), i32 %61)
  br label %82

63:                                               ; preds = %56
  %64 = getelementptr inbounds [310 x i32], [310 x i32]* %2, i64 0, i64 0
  %65 = load i32, i32* %64, align 16
  %66 = call i32 (i8*, ...) @printf(i8* getelementptr inbounds ([3 x i8], [3 x i8]* @.str.1, i64 0, i64 0), i32 %65)
  store i32 1, i32* %3, align 4
  br label %67

67:                                               ; preds = %77, %63
  %68 = load i32, i32* %3, align 4
  %69 = load i32, i32* %5, align 4
  %70 = icmp slt i32 %68, %69
  br i1 %70, label %71, label %80

71:                                               ; preds = %67
  %72 = load i32, i32* %3, align 4
  %73 = sext i32 %72 to i64
  %74 = getelementptr inbounds [310 x i32], [310 x i32]* %2, i64 0, i64 %73
  %75 = load i32, i32* %74, align 4
  %76 = call i32 (i8*, ...) @printf(i8* getelementptr inbounds ([4 x i8], [4 x i8]* @.str.2, i64 0, i64 0), i32 %75)
  br label %77

77:                                               ; preds = %71
  %78 = load i32, i32* %3, align 4
  %79 = add nsw i32 %78, 1
  store i32 %79, i32* %3, align 4
  br label %67

80:                                               ; preds = %67
  %81 = call i32 @putchar(i32 10)
  br label %82

82:                                               ; preds = %80, %59
  ret i32 0
}

; Function Attrs: argmemonly nounwind willreturn
declare void @llvm.memset.p0i8.i64(i8* nocapture writeonly, i8, i64, i1 immarg) #1

declare dso_local i32 @__isoc99_scanf(i8*, ...) #2

declare dso_local i32 @printf(i8*, ...) #2

declare dso_local i32 @putchar(i32) #2


!llvm.module.flags = !{!0}
!llvm.ident = !{!1}

!0 = !{i32 1, !"wchar_size", i32 4}
!1 = !{!"clang version 10.0.0-4ubuntu1 "}
