; ModuleID = 'source-C-CXX/52/1717.c'
source_filename = "source-C-CXX/52/1717.c"
target datalayout = "e-m:e-p270:32:32-p271:32:32-p272:64:64-i64:64-f80:128-n8:16:32:64-S128"
target triple = "x86_64-pc-linux-gnu"

%struct._IO_FILE = type { i32, i8*, i8*, i8*, i8*, i8*, i8*, i8*, i8*, i8*, i8*, i8*, %struct._IO_marker*, %struct._IO_FILE*, i32, i32, i64, i16, i8, [1 x i8], i8*, i64, %struct._IO_codecvt*, %struct._IO_wide_data*, %struct._IO_FILE*, i8*, i64, i32, [20 x i8] }
%struct._IO_marker = type opaque
%struct._IO_codecvt = type opaque
%struct._IO_wide_data = type opaque

@.str = private unnamed_addr constant [4 x i8] c"%d\0A\00", align 1
@.str.1 = private unnamed_addr constant [3 x i8] c"%d\00", align 1
@.str.2 = private unnamed_addr constant [4 x i8] c",%d\00", align 1
@stdout = external local_unnamed_addr global %struct._IO_FILE*, align 8

; Function Attrs: nofree nounwind sspstrong uwtable
define dso_local i32 @main() local_unnamed_addr #0 {
  %1 = alloca [310 x i32], align 16
  %2 = alloca i32, align 4
  %3 = alloca i32, align 4
  %4 = bitcast [310 x i32]* %1 to i8*
  call void @llvm.lifetime.start.p0i8(i64 1240, i8* nonnull %4) #4
  call void @llvm.memset.p0i8.i64(i8* noundef nonnull align 16 dereferenceable(1240) %4, i8 0, i64 1240, i1 false)
  %5 = bitcast i32* %2 to i8*
  call void @llvm.lifetime.start.p0i8(i64 4, i8* nonnull %5) #4
  %6 = bitcast i32* %3 to i8*
  call void @llvm.lifetime.start.p0i8(i64 4, i8* nonnull %6) #4
  %7 = call i32 (i8*, ...) @__isoc99_scanf(i8* getelementptr inbounds ([4 x i8], [4 x i8]* @.str, i64 0, i64 0), i32* nonnull %2)
  %8 = load i32, i32* %2, align 4, !tbaa !5
  %9 = icmp sgt i32 %8, 0
  br i1 %9, label %10, label %40

10:                                               ; preds = %0, %28
  %11 = phi i64 [ %30, %28 ], [ 0, %0 ]
  %12 = phi i32 [ %29, %28 ], [ 0, %0 ]
  %13 = call i32 (i8*, ...) @__isoc99_scanf(i8* getelementptr inbounds ([3 x i8], [3 x i8]* @.str.1, i64 0, i64 0), i32* nonnull %3)
  %14 = load i32, i32* %3, align 4
  %15 = icmp eq i64 %11, 0
  br i1 %15, label %24, label %18

16:                                               ; preds = %18
  %17 = icmp eq i64 %23, %11
  br i1 %17, label %24, label %18, !llvm.loop !9

18:                                               ; preds = %10, %16
  %19 = phi i64 [ %23, %16 ], [ 0, %10 ]
  %20 = getelementptr inbounds [310 x i32], [310 x i32]* %1, i64 0, i64 %19
  %21 = load i32, i32* %20, align 4, !tbaa !5
  %22 = icmp eq i32 %21, %14
  %23 = add nuw nsw i64 %19, 1
  br i1 %22, label %28, label %16

24:                                               ; preds = %16, %10
  %25 = add nsw i32 %12, 1
  %26 = sext i32 %12 to i64
  %27 = getelementptr inbounds [310 x i32], [310 x i32]* %1, i64 0, i64 %26
  store i32 %14, i32* %27, align 4, !tbaa !5
  br label %28

28:                                               ; preds = %18, %24
  %29 = phi i32 [ %25, %24 ], [ %12, %18 ]
  %30 = add nuw nsw i64 %11, 1
  %31 = load i32, i32* %2, align 4, !tbaa !5
  %32 = sext i32 %31 to i64
  %33 = icmp slt i64 %30, %32
  br i1 %33, label %10, label %34, !llvm.loop !11

34:                                               ; preds = %28
  %35 = icmp eq i32 %29, 1
  br i1 %35, label %36, label %40

36:                                               ; preds = %34
  %37 = getelementptr inbounds [310 x i32], [310 x i32]* %1, i64 0, i64 0
  %38 = load i32, i32* %37, align 16, !tbaa !5
  %39 = call i32 (i8*, ...) @printf(i8* nonnull dereferenceable(1) getelementptr inbounds ([4 x i8], [4 x i8]* @.str, i64 0, i64 0), i32 %38)
  br label %58

40:                                               ; preds = %0, %34
  %41 = phi i32 [ %29, %34 ], [ 0, %0 ]
  %42 = getelementptr inbounds [310 x i32], [310 x i32]* %1, i64 0, i64 0
  %43 = load i32, i32* %42, align 16, !tbaa !5
  %44 = call i32 (i8*, ...) @printf(i8* nonnull dereferenceable(1) getelementptr inbounds ([3 x i8], [3 x i8]* @.str.1, i64 0, i64 0), i32 %43)
  %45 = icmp sgt i32 %41, 1
  br i1 %45, label %46, label %55

46:                                               ; preds = %40
  %47 = zext i32 %41 to i64
  br label %48

48:                                               ; preds = %46, %48
  %49 = phi i64 [ 1, %46 ], [ %53, %48 ]
  %50 = getelementptr inbounds [310 x i32], [310 x i32]* %1, i64 0, i64 %49
  %51 = load i32, i32* %50, align 4, !tbaa !5
  %52 = call i32 (i8*, ...) @printf(i8* nonnull dereferenceable(1) getelementptr inbounds ([4 x i8], [4 x i8]* @.str.2, i64 0, i64 0), i32 %51)
  %53 = add nuw nsw i64 %49, 1
  %54 = icmp eq i64 %53, %47
  br i1 %54, label %55, label %48, !llvm.loop !12

55:                                               ; preds = %48, %40
  %56 = load %struct._IO_FILE*, %struct._IO_FILE** @stdout, align 8, !tbaa !13
  %57 = call i32 @putc(i32 10, %struct._IO_FILE* %56) #4
  br label %58

58:                                               ; preds = %55, %36
  call void @llvm.lifetime.end.p0i8(i64 4, i8* nonnull %6) #4
  call void @llvm.lifetime.end.p0i8(i64 4, i8* nonnull %5) #4
  call void @llvm.lifetime.end.p0i8(i64 1240, i8* nonnull %4) #4
  ret i32 0
}

; Function Attrs: argmemonly mustprogress nofree nosync nounwind willreturn
declare void @llvm.lifetime.start.p0i8(i64 immarg, i8* nocapture) #1

; Function Attrs: argmemonly mustprogress nofree nounwind willreturn writeonly
declare void @llvm.memset.p0i8.i64(i8* nocapture writeonly, i8, i64, i1 immarg) #2

; Function Attrs: nofree nounwind
declare noundef i32 @__isoc99_scanf(i8* nocapture noundef readonly, ...) local_unnamed_addr #3

; Function Attrs: nofree nounwind
declare noundef i32 @printf(i8* nocapture noundef readonly, ...) local_unnamed_addr #3

; Function Attrs: argmemonly mustprogress nofree nosync nounwind willreturn
declare void @llvm.lifetime.end.p0i8(i64 immarg, i8* nocapture) #1

; Function Attrs: nofree nounwind
declare noundef i32 @putc(i32 noundef, %struct._IO_FILE* nocapture noundef) local_unnamed_addr #3


!llvm.module.flags = !{!0, !1, !2, !3}
!llvm.ident = !{!4}

!0 = !{i32 1, !"wchar_size", i32 4}
!1 = !{i32 7, !"PIC Level", i32 2}
!2 = !{i32 7, !"PIE Level", i32 2}
!3 = !{i32 7, !"uwtable", i32 1}
!4 = !{!"clang version 13.0.0"}
!5 = !{!6, !6, i64 0}
!6 = !{!"int", !7, i64 0}
!7 = !{!"omnipotent char", !8, i64 0}
!8 = !{!"Simple C/C++ TBAA"}
!9 = distinct !{!9, !10}
!10 = !{!"llvm.loop.mustprogress"}
!11 = distinct !{!11, !10}
!12 = distinct !{!12, !10}
!13 = !{!14, !14, i64 0}
!14 = !{!"any pointer", !7, i64 0}
